target datalayout = "e-m:e-p270:32:32-p271:32:32-p272:64:64-i64:64-i128:128-f80:128-n8:16:32:64-S128"
target triple = "x86_64-pc-linux-gnu"

%struct.ImGui_ImplGlfw_Data = type { ptr, i32, double, ptr, [9 x ptr], %struct.ImVec2, i8, i8, ptr, ptr, ptr, ptr, ptr, ptr, ptr, ptr }
%struct.ImVec2 = type { float, float }
%struct.ImGuiIO = type { i32, i32, %struct.ImVec2, float, float, ptr, ptr, ptr, ptr, float, i8, ptr, %struct.ImVec2, i8, i8, i8, i8, i8, i8, i8, i8, i8, i8, float, float, float, float, float, float, i8, i8, i8, i8, i8, i8, i8, i8, i8, i8, ptr, ptr, ptr, ptr, ptr, i8, i8, i8, i8, i8, i8, i8, float, i32, i32, i32, i32, %struct.ImVec2, ptr, %struct.ImVec2, [5 x i8], float, float, i32, i8, i8, i8, i8, i32, [154 x %struct.ImGuiKeyData], i8, %struct.ImVec2, [5 x %struct.ImVec2], [5 x double], [5 x i8], [5 x i8], [5 x i16], [5 x i16], [5 x i8], [5 x i8], [5 x i8], i8, i8, [5 x float], [5 x float], [5 x float], float, i8, i8, i8, i8, i16, %struct.ImVector }
%struct.ImGuiKeyData = type { i8, float, float, float }
%struct.ImVector = type { i32, i32, ptr }

; Function Attrs: mustprogress uwtable
define linkonce_odr dso_local void @_Z9IM_DELETEI19ImGui_ImplGlfw_DataEvPT_(ptr noundef %0) #1 comdat {
  %2 = alloca ptr, align 8
  store ptr %0, ptr %2, align 8, !tbaa !11
  %3 = load ptr, ptr %2, align 8, !tbaa !11
  %4 = icmp ne ptr %3, null
  br i1 %4, label %5, label %7

5:                                                ; preds = %1
  %6 = load ptr, ptr %2, align 8, !tbaa !11
  call void @_ZN5ImGui7MemFreeEPv(ptr noundef %6)
  br label %7

7:                                                ; preds = %5, %1
  ret void
}

; Function Attrs: mustprogress uwtable
define internal noundef ptr @_ZL29ImGui_ImplGlfw_GetBackendDatav() #1 {
  %1 = call noundef ptr @_ZN5ImGui17GetCurrentContextEv()
  %2 = icmp ne ptr %1, null
  br i1 %2, label %3, label %7

3:                                                ; preds = %0
  %4 = call noundef nonnull align 8 dereferenceable(2944) ptr @_ZN5ImGui5GetIOEv()
  %5 = getelementptr inbounds nuw %struct.ImGuiIO, ptr %4, i32 0, i32 41
  %6 = load ptr, ptr %5, align 8, !tbaa !22
  br label %8

7:                                                ; preds = %0
  br label %8

8:                                                ; preds = %7, %3
  %9 = phi ptr [ %6, %3 ], [ null, %7 ]
  ret ptr %9
}

; Function Attrs: mustprogress uwtable
define dso_local void @_Z23ImGui_ImplGlfw_Shutdownv() #1 {
  %1 = alloca ptr, align 8
  %2 = alloca ptr, align 8
  %3 = alloca i32, align 4
  call void @llvm.lifetime.start.p0(i64 8, ptr %1) #9
  %4 = call noundef ptr @_ZL29ImGui_ImplGlfw_GetBackendDatav()
  store ptr %4, ptr %1, align 8, !tbaa !11
  call void @llvm.lifetime.start.p0(i64 8, ptr %2) #9
  %5 = call noundef nonnull align 8 dereferenceable(2944) ptr @_ZN5ImGui5GetIOEv()
  store ptr %5, ptr %2, align 8, !tbaa !20
  %6 = load ptr, ptr %1, align 8, !tbaa !11
  %7 = getelementptr inbounds nuw %struct.ImGui_ImplGlfw_Data, ptr %6, i32 0, i32 6
  %8 = load i8, ptr %7, align 8, !tbaa !60, !range !33, !noundef !34
  %9 = trunc i8 %8 to i1
  br i1 %9, label %10, label %14

10:                                               ; preds = %0
  %11 = load ptr, ptr %1, align 8, !tbaa !11
  %12 = getelementptr inbounds nuw %struct.ImGui_ImplGlfw_Data, ptr %11, i32 0, i32 0
  %13 = load ptr, ptr %12, align 8, !tbaa !35
  call void @_Z31ImGui_ImplGlfw_RestoreCallbacksP10GLFWwindow(ptr noundef %13)
  br label %14

14:                                               ; preds = %10, %0
  call void @llvm.lifetime.start.p0(i64 4, ptr %3) #9
  store i32 0, ptr %3, align 4, !tbaa !4
  br label %15

15:                                               ; preds = %26, %14
  %16 = load i32, ptr %3, align 4, !tbaa !4
  %17 = icmp slt i32 %16, 9
  br i1 %17, label %19, label %18

18:                                               ; preds = %15
  call void @llvm.lifetime.end.p0(i64 4, ptr %3) #9
  br label %29

19:                                               ; preds = %15
  %20 = load ptr, ptr %1, align 8, !tbaa !11
  %21 = getelementptr inbounds nuw %struct.ImGui_ImplGlfw_Data, ptr %20, i32 0, i32 4
  %22 = load i32, ptr %3, align 4, !tbaa !4
  %23 = sext i32 %22 to i64
  %24 = getelementptr inbounds [9 x ptr], ptr %21, i64 0, i64 %23
  %25 = load ptr, ptr %24, align 8, !tbaa !71
  call void @glfwDestroyCursor(ptr noundef %25)
  br label %26

26:                                               ; preds = %19
  %27 = load i32, ptr %3, align 4, !tbaa !4
  %28 = add nsw i32 %27, 1
  store i32 %28, ptr %3, align 4, !tbaa !4
  br label %15, !llvm.loop !78

29:                                               ; preds = %18
  %30 = load ptr, ptr %2, align 8, !tbaa !20
  %31 = getelementptr inbounds nuw %struct.ImGuiIO, ptr %30, i32 0, i32 39
  store ptr null, ptr %31, align 8, !tbaa !63
  %32 = load ptr, ptr %2, align 8, !tbaa !20
  %33 = getelementptr inbounds nuw %struct.ImGuiIO, ptr %32, i32 0, i32 41
  store ptr null, ptr %33, align 8, !tbaa !22
  %34 = load ptr, ptr %2, align 8, !tbaa !20
  %35 = getelementptr inbounds nuw %struct.ImGuiIO, ptr %34, i32 0, i32 1
  %36 = load i32, ptr %35, align 4, !tbaa !64
  %37 = and i32 %36, -8
  store i32 %37, ptr %35, align 4, !tbaa !64
  %38 = load ptr, ptr %1, align 8, !tbaa !11
  call void @_Z9IM_DELETEI19ImGui_ImplGlfw_DataEvPT_(ptr noundef %38)
  call void @llvm.lifetime.end.p0(i64 8, ptr %2) #9
  call void @llvm.lifetime.end.p0(i64 8, ptr %1) #9
  ret void
}