; Function Attrs: mustprogress uwtable
define dso_local void @_Z23ImGui_ImplGlfw_Shutdownv() local_unnamed_addr #1 {
  %1 = tail call noundef ptr @_ZN5ImGui17GetCurrentContextEv()
  %.not.i = icmp eq ptr %1, null
  br i1 %.not.i, label %_ZL29ImGui_ImplGlfw_GetBackendDatav.exit, label %2

2:                                                ; preds = %0
  %3 = tail call noundef nonnull align 8 dereferenceable(2944) ptr @_ZN5ImGui5GetIOEv()
  %4 = getelementptr inbounds nuw i8, ptr %3, i64 144
  %5 = load ptr, ptr %4, align 8, !tbaa !4
  br label %_ZL29ImGui_ImplGlfw_GetBackendDatav.exit

_ZL29ImGui_ImplGlfw_GetBackendDatav.exit:         ; preds = %0, %2
  %6 = phi ptr [ %5, %2 ], [ null, %0 ]
  %7 = tail call noundef nonnull align 8 dereferenceable(2944) ptr @_ZN5ImGui5GetIOEv()
  %8 = getelementptr inbounds nuw i8, ptr %6, i64 112
  %9 = load i8, ptr %8, align 8, !tbaa !42, !range !27, !noundef !28
  %10 = trunc nuw i8 %9 to i1
  br i1 %10, label %11, label %13

11:                                               ; preds = %_ZL29ImGui_ImplGlfw_GetBackendDatav.exit
  %12 = load ptr, ptr %6, align 8, !tbaa !29
  tail call void @_Z31ImGui_ImplGlfw_RestoreCallbacksP10GLFWwindow(ptr noundef %12)
  br label %13

13:                                               ; preds = %11, %_ZL29ImGui_ImplGlfw_GetBackendDatav.exit
  %14 = getelementptr inbounds nuw i8, ptr %6, i64 32
  br label %20

_Z9IM_DELETEI19ImGui_ImplGlfw_DataEvPT_.exit:     ; preds = %20
  %15 = getelementptr inbounds nuw i8, ptr %7, i64 128
  store ptr null, ptr %15, align 8, !tbaa !43
  %16 = getelementptr inbounds nuw i8, ptr %7, i64 144
  store ptr null, ptr %16, align 8, !tbaa !4
  %17 = getelementptr inbounds nuw i8, ptr %7, i64 4
  %18 = load i32, ptr %17, align 4, !tbaa !44
  %19 = and i32 %18, -8
  store i32 %19, ptr %17, align 4, !tbaa !44
  tail call void @_ZN5ImGui7MemFreeEPv(ptr noundef nonnull %6)
  ret void

20:                                               ; preds = %13, %20
  %indvars.iv = phi i64 [ 0, %13 ], [ %indvars.iv.next, %20 ]
  %21 = getelementptr inbounds nuw [9 x ptr], ptr %14, i64 0, i64 %indvars.iv
  %22 = load ptr, ptr %21, align 8, !tbaa !48
  tail call void @glfwDestroyCursor(ptr noundef %22)
  %indvars.iv.next = add nuw nsw i64 %indvars.iv, 1
  %exitcond.not = icmp eq i64 %indvars.iv.next, 9
  br i1 %exitcond.not, label %_Z9IM_DELETEI19ImGui_ImplGlfw_DataEvPT_.exit, label %20, !llvm.loop !53
}